; Function Attrs: mustprogress nofree norecurse nosync nounwind willreturn memory(read, inaccessiblemem: none) uwtable
define noundef signext i8 @_ZNK6icu_759UVector326equalsERKS0_(ptr nocapture noundef nonnull readonly align 8 dereferenceable(32) %this, ptr nocapture noundef nonnull readonly align 8 dereferenceable(32) %other) local_unnamed_addr #7 align 2 {
entry:
  %count = getelementptr inbounds i8, ptr %this, i64 8
  %0 = load i32, ptr %count, align 8
  %count2 = getelementptr inbounds i8, ptr %other, i64 8
  %1 = load i32, ptr %count2, align 8
  %cmp.not = icmp eq i32 %0, %1
  br i1 %cmp.not, label %for.cond.preheader, label %return

for.cond.preheader:                               ; preds = %entry
  %cmp45 = icmp sgt i32 %0, 0
  br i1 %cmp45, label %for.body.lr.ph, label %return

for.body.lr.ph:                                   ; preds = %for.cond.preheader
  %elements = getelementptr inbounds i8, ptr %this, i64 24
  %2 = load ptr, ptr %elements, align 8
  %elements5 = getelementptr inbounds i8, ptr %other, i64 24
  %3 = load ptr, ptr %elements5, align 8
  %wide.trip.count = zext nneg i32 %0 to i64
  br label %for.body

for.cond:                                         ; preds = %for.body
  %indvars.iv.next = add nuw nsw i64 %indvars.iv, 1
  %exitcond.not = icmp eq i64 %indvars.iv.next, %wide.trip.count
  br i1 %exitcond.not, label %return, label %for.body, !llvm.loop !16

for.body:                                         ; preds = %for.body.lr.ph, %for.cond
  %indvars.iv = phi i64 [ 0, %for.body.lr.ph ], [ %indvars.iv.next, %for.cond ]
  %arrayidx = getelementptr inbounds i32, ptr %2, i64 %indvars.iv
  %4 = load i32, ptr %arrayidx, align 4
  %arrayidx7 = getelementptr inbounds i32, ptr %3, i64 %indvars.iv
  %5 = load i32, ptr %arrayidx7, align 4
  %cmp8.not = icmp eq i32 %4, %5
  br i1 %cmp8.not, label %for.cond, label %return

return:                                           ; preds = %for.body, %for.cond, %for.cond.preheader, %entry
  %retval.0 = phi i8 [ 0, %entry ], [ 1, %for.cond.preheader ], [ 0, %for.body ], [ 1, %for.cond ]
  ret i8 %retval.0
}